target datalayout = "e-m:e-p270:32:32-p271:32:32-p272:64:64-i64:64-i128:128-f80:128-n8:16:32:64-S128"
target triple = "x86_64-pc-linux-gnu"

%struct._Node = type { %union.anon }
%union.anon = type { %struct.StrNode }
%struct.StrNode = type { %struct.NodeBase, ptr, ptr, i32, i32, [24 x i8] }
%struct.NodeBase = type { i32 }

; Function Attrs: nounwind sspstrong uwtable
define internal void @swap_node(ptr noundef %0, ptr noundef %1) #0 {
  %3 = alloca ptr, align 8
  %4 = alloca ptr, align 8
  %5 = alloca %struct._Node, align 8
  %6 = alloca ptr, align 8
  %7 = alloca i64, align 8
  %8 = alloca ptr, align 8
  %9 = alloca i64, align 8
  store ptr %0, ptr %3, align 8, !tbaa !66
  store ptr %1, ptr %4, align 8, !tbaa !66
  call void @llvm.lifetime.start.p0(i64 56, ptr %5) #11
  %10 = load ptr, ptr %3, align 8, !tbaa !66
  call void @llvm.memcpy.p0.p0.i64(ptr align 8 %5, ptr align 8 %10, i64 56, i1 false), !tbaa.struct !208
  %11 = load ptr, ptr %3, align 8, !tbaa !66
  %12 = load ptr, ptr %4, align 8, !tbaa !66
  call void @llvm.memcpy.p0.p0.i64(ptr align 8 %11, ptr align 8 %12, i64 56, i1 false), !tbaa.struct !208
  %13 = load ptr, ptr %4, align 8, !tbaa !66
  call void @llvm.memcpy.p0.p0.i64(ptr align 8 %13, ptr align 8 %5, i64 56, i1 false), !tbaa.struct !208
  %14 = load ptr, ptr %3, align 8, !tbaa !66
  %15 = getelementptr inbounds nuw %struct._Node, ptr %14, i32 0, i32 0
  %16 = getelementptr inbounds nuw %struct.NodeBase, ptr %15, i32 0, i32 0
  %17 = load i32, ptr %16, align 8, !tbaa !38
  %18 = icmp eq i32 %17, 0
  br i1 %18, label %19, label %49

19:                                               ; preds = %2
  call void @llvm.lifetime.start.p0(i64 8, ptr %6) #11
  %20 = load ptr, ptr %3, align 8, !tbaa !66
  %21 = getelementptr inbounds nuw %struct._Node, ptr %20, i32 0, i32 0
  store ptr %21, ptr %6, align 8, !tbaa !36
  %22 = load ptr, ptr %6, align 8, !tbaa !36
  %23 = getelementptr inbounds nuw %struct.StrNode, ptr %22, i32 0, i32 4
  %24 = load i32, ptr %23, align 4, !tbaa !209
  %25 = icmp eq i32 %24, 0
  br i1 %25, label %26, label %48

26:                                               ; preds = %19
  call void @llvm.lifetime.start.p0(i64 8, ptr %7) #11
  %27 = load ptr, ptr %6, align 8, !tbaa !36
  %28 = getelementptr inbounds nuw %struct.StrNode, ptr %27, i32 0, i32 2
  %29 = load ptr, ptr %28, align 8, !tbaa !130
  %30 = load ptr, ptr %6, align 8, !tbaa !36
  %31 = getelementptr inbounds nuw %struct.StrNode, ptr %30, i32 0, i32 1
  %32 = load ptr, ptr %31, align 8, !tbaa !128
  %33 = ptrtoint ptr %29 to i64
  %34 = ptrtoint ptr %32 to i64
  %35 = sub i64 %33, %34
  store i64 %35, ptr %7, align 8, !tbaa !14
  %36 = load ptr, ptr %6, align 8, !tbaa !36
  %37 = getelementptr inbounds nuw %struct.StrNode, ptr %36, i32 0, i32 5
  %38 = getelementptr inbounds [24 x i8], ptr %37, i64 0, i64 0
  %39 = load ptr, ptr %6, align 8, !tbaa !36
  %40 = getelementptr inbounds nuw %struct.StrNode, ptr %39, i32 0, i32 1
  store ptr %38, ptr %40, align 8, !tbaa !128
  %41 = load ptr, ptr %6, align 8, !tbaa !36
  %42 = getelementptr inbounds nuw %struct.StrNode, ptr %41, i32 0, i32 1
  %43 = load ptr, ptr %42, align 8, !tbaa !128
  %44 = load i64, ptr %7, align 8, !tbaa !14
  %45 = getelementptr i8, ptr %43, i64 %44
  %46 = load ptr, ptr %6, align 8, !tbaa !36
  %47 = getelementptr inbounds nuw %struct.StrNode, ptr %46, i32 0, i32 2
  store ptr %45, ptr %47, align 8, !tbaa !130
  call void @llvm.lifetime.end.p0(i64 8, ptr %7) #11
  br label %48

48:                                               ; preds = %26, %19
  call void @llvm.lifetime.end.p0(i64 8, ptr %6) #11
  br label %49

49:                                               ; preds = %48, %2
  %50 = load ptr, ptr %4, align 8, !tbaa !66
  %51 = getelementptr inbounds nuw %struct._Node, ptr %50, i32 0, i32 0
  %52 = getelementptr inbounds nuw %struct.NodeBase, ptr %51, i32 0, i32 0
  %53 = load i32, ptr %52, align 8, !tbaa !38
  %54 = icmp eq i32 %53, 0
  br i1 %54, label %55, label %85

55:                                               ; preds = %49
  call void @llvm.lifetime.start.p0(i64 8, ptr %8) #11
  %56 = load ptr, ptr %4, align 8, !tbaa !66
  %57 = getelementptr inbounds nuw %struct._Node, ptr %56, i32 0, i32 0
  store ptr %57, ptr %8, align 8, !tbaa !36
  %58 = load ptr, ptr %8, align 8, !tbaa !36
  %59 = getelementptr inbounds nuw %struct.StrNode, ptr %58, i32 0, i32 4
  %60 = load i32, ptr %59, align 4, !tbaa !209
  %61 = icmp eq i32 %60, 0
  br i1 %61, label %62, label %84

62:                                               ; preds = %55
  call void @llvm.lifetime.start.p0(i64 8, ptr %9) #11
  %63 = load ptr, ptr %8, align 8, !tbaa !36
  %64 = getelementptr inbounds nuw %struct.StrNode, ptr %63, i32 0, i32 2
  %65 = load ptr, ptr %64, align 8, !tbaa !130
  %66 = load ptr, ptr %8, align 8, !tbaa !36
  %67 = getelementptr inbounds nuw %struct.StrNode, ptr %66, i32 0, i32 1
  %68 = load ptr, ptr %67, align 8, !tbaa !128
  %69 = ptrtoint ptr %65 to i64
  %70 = ptrtoint ptr %68 to i64
  %71 = sub i64 %69, %70
  store i64 %71, ptr %9, align 8, !tbaa !14
  %72 = load ptr, ptr %8, align 8, !tbaa !36
  %73 = getelementptr inbounds nuw %struct.StrNode, ptr %72, i32 0, i32 5
  %74 = getelementptr inbounds [24 x i8], ptr %73, i64 0, i64 0
  %75 = load ptr, ptr %8, align 8, !tbaa !36
  %76 = getelementptr inbounds nuw %struct.StrNode, ptr %75, i32 0, i32 1
  store ptr %74, ptr %76, align 8, !tbaa !128
  %77 = load ptr, ptr %8, align 8, !tbaa !36
  %78 = getelementptr inbounds nuw %struct.StrNode, ptr %77, i32 0, i32 1
  %79 = load ptr, ptr %78, align 8, !tbaa !128
  %80 = load i64, ptr %9, align 8, !tbaa !14
  %81 = getelementptr i8, ptr %79, i64 %80
  %82 = load ptr, ptr %8, align 8, !tbaa !36
  %83 = getelementptr inbounds nuw %struct.StrNode, ptr %82, i32 0, i32 2
  store ptr %81, ptr %83, align 8, !tbaa !130
  call void @llvm.lifetime.end.p0(i64 8, ptr %9) #11
  br label %84

84:                                               ; preds = %62, %55
  call void @llvm.lifetime.end.p0(i64 8, ptr %8) #11
  br label %85

85:                                               ; preds = %84, %49
  call void @llvm.lifetime.end.p0(i64 56, ptr %5) #11
  ret void
}