; Function Attrs: mustprogress nofree norecurse nosync nounwind sspstrong willreturn memory(argmem: readwrite) uwtable
define internal fastcc void @swap_node(ptr noundef %0, ptr noundef %1) unnamed_addr #16 {
  %.sroa.0 = alloca %struct.StrNode, align 8
  call void @llvm.lifetime.start.p0(i64 56, ptr nonnull %.sroa.0)
  call void @llvm.memcpy.p0.p0.i64(ptr noundef nonnull align 8 dereferenceable(56) %.sroa.0, ptr noundef nonnull align 8 dereferenceable(56) %0, i64 56, i1 false), !tbaa.struct !170
  tail call void @llvm.memcpy.p0.p0.i64(ptr noundef nonnull align 8 dereferenceable(56) %0, ptr noundef nonnull align 8 dereferenceable(56) %1, i64 56, i1 false), !tbaa.struct !170
  call void @llvm.memcpy.p0.p0.i64(ptr noundef nonnull align 8 dereferenceable(56) %1, ptr noundef nonnull align 8 dereferenceable(56) %.sroa.0, i64 56, i1 false), !tbaa.struct !170
  %3 = load i32, ptr %0, align 8, !tbaa !34
  %4 = icmp eq i32 %3, 0
  br i1 %4, label %5, label %19

5:                                                ; preds = %2
  %6 = getelementptr inbounds nuw i8, ptr %0, i64 28
  %7 = load i32, ptr %6, align 4, !tbaa !171
  %8 = icmp eq i32 %7, 0
  br i1 %8, label %9, label %19

9:                                                ; preds = %5
  %10 = getelementptr inbounds nuw i8, ptr %0, i64 16
  %11 = load ptr, ptr %10, align 8, !tbaa !157
  %12 = getelementptr inbounds nuw i8, ptr %0, i64 8
  %13 = load ptr, ptr %12, align 8, !tbaa !155
  %14 = ptrtoint ptr %11 to i64
  %15 = ptrtoint ptr %13 to i64
  %16 = sub i64 %14, %15
  %17 = getelementptr inbounds nuw i8, ptr %0, i64 32
  store ptr %17, ptr %12, align 8, !tbaa !155
  %18 = getelementptr i8, ptr %17, i64 %16
  store ptr %18, ptr %10, align 8, !tbaa !157
  br label %19

19:                                               ; preds = %5, %9, %2
  %20 = load i32, ptr %1, align 8, !tbaa !34
  %21 = icmp eq i32 %20, 0
  br i1 %21, label %22, label %36

22:                                               ; preds = %19
  %23 = getelementptr inbounds nuw i8, ptr %1, i64 28
  %24 = load i32, ptr %23, align 4, !tbaa !171
  %25 = icmp eq i32 %24, 0
  br i1 %25, label %26, label %36

26:                                               ; preds = %22
  %27 = getelementptr inbounds nuw i8, ptr %1, i64 16
  %28 = load ptr, ptr %27, align 8, !tbaa !157
  %29 = getelementptr inbounds nuw i8, ptr %1, i64 8
  %30 = load ptr, ptr %29, align 8, !tbaa !155
  %31 = ptrtoint ptr %28 to i64
  %32 = ptrtoint ptr %30 to i64
  %33 = sub i64 %31, %32
  %34 = getelementptr inbounds nuw i8, ptr %1, i64 32
  store ptr %34, ptr %29, align 8, !tbaa !155
  %35 = getelementptr i8, ptr %34, i64 %33
  store ptr %35, ptr %27, align 8, !tbaa !157
  br label %36

36:                                               ; preds = %22, %26, %19
  call void @llvm.lifetime.end.p0(i64 56, ptr nonnull %.sroa.0)
  ret void
}